; ModuleID = 'source-C-CXX/35/1228.c'
source_filename = "source-C-CXX/35/1228.c"
target datalayout = "e-m:e-p270:32:32-p271:32:32-p272:64:64-i64:64-f80:128-n8:16:32:64-S128"
target triple = "x86_64-pc-linux-gnu"

@.str = private unnamed_addr constant [6 x i8] c"%s %s\00", align 1
@.str.1 = private unnamed_addr constant [3 x i8] c"NO\00", align 1
@.str.2 = private unnamed_addr constant [4 x i8] c"YES\00", align 1

; Function Attrs: nofree nounwind sspstrong uwtable
define dso_local i32 @main() local_unnamed_addr #0 {
  %1 = alloca [100 x i8], align 16
  %2 = alloca [100 x i8], align 16
  %3 = getelementptr inbounds [100 x i8], [100 x i8]* %1, i64 0, i64 0
  call void @llvm.lifetime.start.p0i8(i64 100, i8* nonnull %3) #4
  %4 = getelementptr inbounds [100 x i8], [100 x i8]* %2, i64 0, i64 0
  call void @llvm.lifetime.start.p0i8(i64 100, i8* nonnull %4) #4
  %5 = call i32 (i8*, ...) @__isoc99_scanf(i8* getelementptr inbounds ([6 x i8], [6 x i8]* @.str, i64 0, i64 0), i8* nonnull %3, i8* nonnull %4)
  %6 = call i64 @strlen(i8* noundef nonnull %3) #5
  %7 = call i64 @strlen(i8* noundef nonnull %4) #5
  %8 = icmp eq i64 %6, %7
  br i1 %8, label %9, label %45

9:                                                ; preds = %0
  %10 = icmp eq i64 %6, 0
  br i1 %10, label %40, label %11

11:                                               ; preds = %9
  %12 = trunc i64 %6 to i32
  br label %13

13:                                               ; preds = %11, %34
  %14 = phi i64 [ 0, %11 ], [ %38, %34 ]
  %15 = phi i32 [ 0, %11 ], [ %37, %34 ]
  %16 = getelementptr inbounds [100 x i8], [100 x i8]* %1, i64 0, i64 %14
  %17 = load i8, i8* %16, align 1, !tbaa !5
  %18 = icmp eq i8 %17, 0
  br i1 %18, label %40, label %19

19:                                               ; preds = %13
  %20 = call i64 @strlen(i8* noundef nonnull %4) #5
  %21 = icmp eq i64 %20, 0
  br i1 %21, label %32, label %22

22:                                               ; preds = %19, %29
  %23 = phi i64 [ %30, %29 ], [ 0, %19 ]
  %24 = getelementptr inbounds [100 x i8], [100 x i8]* %2, i64 0, i64 %23
  %25 = load i8, i8* %24, align 1, !tbaa !5
  %26 = icmp eq i8 %25, 0
  br i1 %26, label %32, label %27

27:                                               ; preds = %22
  %28 = icmp eq i8 %25, %17
  br i1 %28, label %34, label %29

29:                                               ; preds = %27
  %30 = add nuw i64 %23, 1
  %31 = icmp eq i64 %30, %20
  br i1 %31, label %32, label %22, !llvm.loop !8

32:                                               ; preds = %19, %22, %29
  %33 = call i32 (i8*, ...) @printf(i8* nonnull dereferenceable(1) getelementptr inbounds ([3 x i8], [3 x i8]* @.str.1, i64 0, i64 0))
  br label %40

34:                                               ; preds = %27
  %35 = and i64 %23, 4294967295
  %36 = getelementptr inbounds [100 x i8], [100 x i8]* %2, i64 0, i64 %35
  store i8 48, i8* %36, align 1, !tbaa !5
  %37 = add nuw nsw i32 %15, 1
  %38 = add nuw i64 %14, 1
  %39 = icmp eq i64 %38, %6
  br i1 %39, label %40, label %13, !llvm.loop !10

40:                                               ; preds = %13, %34, %9, %32
  %41 = phi i32 [ %15, %32 ], [ 0, %9 ], [ %15, %13 ], [ %12, %34 ]
  %42 = zext i32 %41 to i64
  %43 = call i64 @strlen(i8* noundef nonnull %3) #5
  %44 = icmp eq i64 %43, %42
  br i1 %44, label %45, label %48

45:                                               ; preds = %0, %40
  %46 = phi i8* [ getelementptr inbounds ([4 x i8], [4 x i8]* @.str.2, i64 0, i64 0), %40 ], [ getelementptr inbounds ([3 x i8], [3 x i8]* @.str.1, i64 0, i64 0), %0 ]
  %47 = call i32 (i8*, ...) @printf(i8* nonnull dereferenceable(1) %46)
  br label %48

48:                                               ; preds = %45, %40
  call void @llvm.lifetime.end.p0i8(i64 100, i8* nonnull %4) #4
  call void @llvm.lifetime.end.p0i8(i64 100, i8* nonnull %3) #4
  ret i32 0
}

; Function Attrs: argmemonly mustprogress nofree nosync nounwind willreturn
declare void @llvm.lifetime.start.p0i8(i64 immarg, i8* nocapture) #1

; Function Attrs: nofree nounwind
declare noundef i32 @__isoc99_scanf(i8* nocapture noundef readonly, ...) local_unnamed_addr #2

; Function Attrs: argmemonly mustprogress nofree nounwind readonly willreturn
declare i64 @strlen(i8* nocapture) local_unnamed_addr #3

; Function Attrs: nofree nounwind
declare noundef i32 @printf(i8* nocapture noundef readonly, ...) local_unnamed_addr #2

; Function Attrs: argmemonly mustprogress nofree nosync nounwind willreturn
declare void @llvm.lifetime.end.p0i8(i64 immarg, i8* nocapture) #1


!llvm.module.flags = !{!0, !1, !2, !3}
!llvm.ident = !{!4}

!0 = !{i32 1, !"wchar_size", i32 4}
!1 = !{i32 7, !"PIC Level", i32 2}
!2 = !{i32 7, !"PIE Level", i32 2}
!3 = !{i32 7, !"uwtable", i32 1}
!4 = !{!"clang version 13.0.0"}
!5 = !{!6, !6, i64 0}
!6 = !{!"omnipotent char", !7, i64 0}
!7 = !{!"Simple C/C++ TBAA"}
!8 = distinct !{!8, !9}
!9 = !{!"llvm.loop.mustprogress"}
!10 = distinct !{!10, !9}
